target datalayout = "e-m:e-p270:32:32-p271:32:32-p272:64:64-i64:64-i128:128-f80:128-n8:16:32:64-S128"
target triple = "x86_64-pc-linux-gnu"

%struct.mbedtls_ecp_point = type { %struct.mbedtls_mpi, %struct.mbedtls_mpi, %struct.mbedtls_mpi }
%struct.mbedtls_mpi = type { ptr, i16, i16 }
%struct.mbedtls_ecp_group = type { i32, %struct.mbedtls_mpi, %struct.mbedtls_mpi, %struct.mbedtls_mpi, %struct.mbedtls_ecp_point, %struct.mbedtls_mpi, i64, i64, i32, ptr, ptr, ptr, ptr, ptr, i64 }
%struct.mbedtls_ecp_keypair = type { %struct.mbedtls_ecp_group, %struct.mbedtls_mpi, %struct.mbedtls_ecp_point }

; Function Attrs: nounwind uwtable
define hidden void @mbedtls_ecdsa_free(ptr noundef %0) #0 {
  %2 = alloca ptr, align 8
  store ptr %0, ptr %2, align 8, !tbaa !36
  %3 = load ptr, ptr %2, align 8, !tbaa !36
  %4 = icmp eq ptr %3, null
  br i1 %4, label %5, label %6

5:                                                ; preds = %1
  br label %8

6:                                                ; preds = %1
  %7 = load ptr, ptr %2, align 8, !tbaa !36
  call void @mbedtls_ecp_keypair_free(ptr noundef %7)
  br label %8

8:                                                ; preds = %6, %5
  ret void
}

; Function Attrs: nounwind uwtable
define hidden i32 @mbedtls_ecdsa_from_keypair(ptr noundef %0, ptr noundef %1) #0 {
  %3 = alloca ptr, align 8
  %4 = alloca ptr, align 8
  %5 = alloca i32, align 4
  store ptr %0, ptr %3, align 8, !tbaa !36
  store ptr %1, ptr %4, align 8, !tbaa !36
  call void @llvm.lifetime.start.p0(i64 4, ptr %5) #6
  store i32 -110, ptr %5, align 4, !tbaa !3
  %6 = load ptr, ptr %3, align 8, !tbaa !36
  %7 = getelementptr inbounds nuw %struct.mbedtls_ecp_keypair, ptr %6, i32 0, i32 0
  %8 = load ptr, ptr %4, align 8, !tbaa !36
  %9 = getelementptr inbounds nuw %struct.mbedtls_ecp_keypair, ptr %8, i32 0, i32 0
  %10 = call i32 @mbedtls_ecp_group_copy(ptr noundef %7, ptr noundef %9)
  store i32 %10, ptr %5, align 4, !tbaa !3
  %11 = icmp ne i32 %10, 0
  br i1 %11, label %26, label %12

12:                                               ; preds = %2
  %13 = load ptr, ptr %3, align 8, !tbaa !36
  %14 = getelementptr inbounds nuw %struct.mbedtls_ecp_keypair, ptr %13, i32 0, i32 1
  %15 = load ptr, ptr %4, align 8, !tbaa !36
  %16 = getelementptr inbounds nuw %struct.mbedtls_ecp_keypair, ptr %15, i32 0, i32 1
  %17 = call i32 @mbedtls_mpi_copy(ptr noundef %14, ptr noundef %16)
  store i32 %17, ptr %5, align 4, !tbaa !3
  %18 = icmp ne i32 %17, 0
  br i1 %18, label %26, label %19

19:                                               ; preds = %12
  %20 = load ptr, ptr %3, align 8, !tbaa !36
  %21 = getelementptr inbounds nuw %struct.mbedtls_ecp_keypair, ptr %20, i32 0, i32 2
  %22 = load ptr, ptr %4, align 8, !tbaa !36
  %23 = getelementptr inbounds nuw %struct.mbedtls_ecp_keypair, ptr %22, i32 0, i32 2
  %24 = call i32 @mbedtls_ecp_copy(ptr noundef %21, ptr noundef %23)
  store i32 %24, ptr %5, align 4, !tbaa !3
  %25 = icmp ne i32 %24, 0
  br i1 %25, label %26, label %28

26:                                               ; preds = %19, %12, %2
  %27 = load ptr, ptr %3, align 8, !tbaa !36
  call void @mbedtls_ecdsa_free(ptr noundef %27)
  br label %28

28:                                               ; preds = %26, %19
  %29 = load i32, ptr %5, align 4, !tbaa !3
  call void @llvm.lifetime.end.p0(i64 4, ptr %5) #6
  ret i32 %29
}